target datalayout = "e-m:e-p270:32:32-p271:32:32-p272:64:64-i64:64-i128:128-f80:128-n8:16:32:64-S128"
target triple = "x86_64-pc-linux-gnu"

%struct._zval_struct = type { %union._zend_value, %union.anon, %union.anon.2 }
%union._zend_value = type { i64 }
%union.anon = type { i32 }
%union.anon.2 = type { i32 }
%struct._zend_array = type { %struct._zend_refcounted_h, %union.anon.4, i32, %union.anon.6, i32, i32, i32, i32, i64, ptr }
%struct._zend_refcounted_h = type { i32, %union.anon.3 }
%union.anon.3 = type { i32 }
%union.anon.4 = type { i32 }
%union.anon.6 = type { ptr }
%struct._zend_object_iterator_funcs = type { ptr, ptr, ptr, ptr, ptr, ptr, ptr, ptr }
%struct._zend_object = type { %struct._zend_refcounted_h, i32, ptr, ptr, ptr, [1 x %struct._zval_struct] }
%struct._zend_class_entry = type { i8, ptr, %union.anon.15, i32, i32, i32, i32, ptr, ptr, ptr, %struct._zend_array, %struct._zend_array, %struct._zend_array, ptr, ptr, ptr, ptr, ptr, ptr, ptr, ptr, ptr, ptr, ptr, ptr, ptr, ptr, ptr, ptr, ptr, ptr, ptr, %union.anon.16, ptr, ptr, ptr, ptr, i32, i32, %union.anon.17, ptr, ptr, ptr, ptr, i32, ptr, ptr, %union.anon.18 }
%union.anon.15 = type { ptr }
%union.anon.16 = type { ptr }
%union.anon.17 = type { ptr }
%union.anon.18 = type { %struct.anon.19 }
%struct.anon.19 = type { ptr, i32, i32 }
%struct._zend_object_iterator = type { %struct._zend_object, %struct._zval_struct, ptr, i64 }
%struct._spl_dual_it_object = type { %struct.anon.8, %struct.anon.9, i32, %union.anon.10, %struct._zend_object }
%struct.anon.8 = type { %struct._zval_struct, ptr, ptr, ptr }
%struct.anon.9 = type { %struct._zval_struct, %struct._zval_struct, i64 }
%union.anon.10 = type { %struct.anon.12 }
%struct.anon.12 = type { i64, ptr, %struct._zval_struct, %struct._zval_struct }
%struct.anon.13 = type { %struct._zval_struct, ptr }
%struct._zend_refcounted = type { %struct._zend_refcounted_h }

; Function Attrs: nounwind uwtable
define internal void @spl_dual_it_rewind(ptr noundef %0) #0 {
  %2 = alloca ptr, align 8
  store ptr %0, ptr %2, align 8
  %3 = load ptr, ptr %2, align 8
  call void @spl_dual_it_free(ptr noundef %3)
  %4 = load ptr, ptr %2, align 8
  %5 = getelementptr inbounds %struct._spl_dual_it_object, ptr %4, i32 0, i32 1
  %6 = getelementptr inbounds %struct.anon.9, ptr %5, i32 0, i32 2
  store i64 0, ptr %6, align 8
  %7 = load ptr, ptr %2, align 8
  %8 = getelementptr inbounds %struct._spl_dual_it_object, ptr %7, i32 0, i32 0
  %9 = getelementptr inbounds %struct.anon.8, ptr %8, i32 0, i32 3
  %10 = load ptr, ptr %9, align 8
  %11 = icmp ne ptr %10, null
  br i1 %11, label %12, label %35

12:                                               ; preds = %1
  %13 = load ptr, ptr %2, align 8
  %14 = getelementptr inbounds %struct._spl_dual_it_object, ptr %13, i32 0, i32 0
  %15 = getelementptr inbounds %struct.anon.8, ptr %14, i32 0, i32 3
  %16 = load ptr, ptr %15, align 8
  %17 = getelementptr inbounds %struct._zend_object_iterator, ptr %16, i32 0, i32 2
  %18 = load ptr, ptr %17, align 8
  %19 = getelementptr inbounds %struct._zend_object_iterator_funcs, ptr %18, i32 0, i32 5
  %20 = load ptr, ptr %19, align 8
  %21 = icmp ne ptr %20, null
  br i1 %21, label %22, label %35

22:                                               ; preds = %12
  %23 = load ptr, ptr %2, align 8
  %24 = getelementptr inbounds %struct._spl_dual_it_object, ptr %23, i32 0, i32 0
  %25 = getelementptr inbounds %struct.anon.8, ptr %24, i32 0, i32 3
  %26 = load ptr, ptr %25, align 8
  %27 = getelementptr inbounds %struct._zend_object_iterator, ptr %26, i32 0, i32 2
  %28 = load ptr, ptr %27, align 8
  %29 = getelementptr inbounds %struct._zend_object_iterator_funcs, ptr %28, i32 0, i32 5
  %30 = load ptr, ptr %29, align 8
  %31 = load ptr, ptr %2, align 8
  %32 = getelementptr inbounds %struct._spl_dual_it_object, ptr %31, i32 0, i32 0
  %33 = getelementptr inbounds %struct.anon.8, ptr %32, i32 0, i32 3
  %34 = load ptr, ptr %33, align 8
  call void %30(ptr noundef %34)
  br label %35

35:                                               ; preds = %22, %12, %1
  ret void
}

; Function Attrs: nounwind uwtable
define hidden i32 @spl_append_it_next_iterator(ptr noundef %0) #0 {
  %2 = alloca ptr, align 8
  %3 = alloca ptr, align 8
  %4 = alloca i32, align 4
  %5 = alloca ptr, align 8
  %6 = alloca ptr, align 8
  %7 = alloca ptr, align 8
  %8 = alloca ptr, align 8
  %9 = alloca ptr, align 8
  %10 = alloca i32, align 4
  store ptr %0, ptr %5, align 8
  %11 = load ptr, ptr %5, align 8
  call void @spl_dual_it_free(ptr noundef %11)
  %12 = load ptr, ptr %5, align 8
  %13 = getelementptr inbounds %struct._spl_dual_it_object, ptr %12, i32 0, i32 0
  %14 = getelementptr inbounds %struct.anon.8, ptr %13, i32 0, i32 0
  store ptr %14, ptr %3, align 8
  %15 = load ptr, ptr %3, align 8
  %16 = getelementptr inbounds %struct._zval_struct, ptr %15, i32 0, i32 1
  %17 = load i8, ptr %16, align 8
  %18 = zext i8 %17 to i32
  %19 = icmp eq i32 %18, 0
  br i1 %19, label %47, label %20

20:                                               ; preds = %1
  %21 = load ptr, ptr %5, align 8
  %22 = getelementptr inbounds %struct._spl_dual_it_object, ptr %21, i32 0, i32 0
  %23 = getelementptr inbounds %struct.anon.8, ptr %22, i32 0, i32 0
  call void @zval_ptr_dtor(ptr noundef %23)
  br label %24

24:                                               ; preds = %20
  %25 = load ptr, ptr %5, align 8
  %26 = getelementptr inbounds %struct._spl_dual_it_object, ptr %25, i32 0, i32 0
  %27 = getelementptr inbounds %struct.anon.8, ptr %26, i32 0, i32 0
  %28 = getelementptr inbounds %struct._zval_struct, ptr %27, i32 0, i32 1
  store i32 0, ptr %28, align 8
  br label %29

29:                                               ; preds = %24
  %30 = load ptr, ptr %5, align 8
  %31 = getelementptr inbounds %struct._spl_dual_it_object, ptr %30, i32 0, i32 0
  %32 = getelementptr inbounds %struct.anon.8, ptr %31, i32 0, i32 1
  store ptr null, ptr %32, align 8
  %33 = load ptr, ptr %5, align 8
  %34 = getelementptr inbounds %struct._spl_dual_it_object, ptr %33, i32 0, i32 0
  %35 = getelementptr inbounds %struct.anon.8, ptr %34, i32 0, i32 3
  %36 = load ptr, ptr %35, align 8
  %37 = icmp ne ptr %36, null
  br i1 %37, label %38, label %46

38:                                               ; preds = %29
  %39 = load ptr, ptr %5, align 8
  %40 = getelementptr inbounds %struct._spl_dual_it_object, ptr %39, i32 0, i32 0
  %41 = getelementptr inbounds %struct.anon.8, ptr %40, i32 0, i32 3
  %42 = load ptr, ptr %41, align 8
  call void @zend_iterator_dtor(ptr noundef %42)
  %43 = load ptr, ptr %5, align 8
  %44 = getelementptr inbounds %struct._spl_dual_it_object, ptr %43, i32 0, i32 0
  %45 = getelementptr inbounds %struct.anon.8, ptr %44, i32 0, i32 3
  store ptr null, ptr %45, align 8
  br label %46

46:                                               ; preds = %38, %29
  br label %47

47:                                               ; preds = %46, %1
  %48 = load ptr, ptr %5, align 8
  %49 = getelementptr inbounds %struct._spl_dual_it_object, ptr %48, i32 0, i32 3
  %50 = getelementptr inbounds %struct.anon.13, ptr %49, i32 0, i32 1
  %51 = load ptr, ptr %50, align 8
  %52 = getelementptr inbounds %struct._zend_object_iterator, ptr %51, i32 0, i32 2
  %53 = load ptr, ptr %52, align 8
  %54 = getelementptr inbounds %struct._zend_object_iterator_funcs, ptr %53, i32 0, i32 1
  %55 = load ptr, ptr %54, align 8
  %56 = load ptr, ptr %5, align 8
  %57 = getelementptr inbounds %struct._spl_dual_it_object, ptr %56, i32 0, i32 3
  %58 = getelementptr inbounds %struct.anon.13, ptr %57, i32 0, i32 1
  %59 = load ptr, ptr %58, align 8
  %60 = call i32 %55(ptr noundef %59)
  %61 = icmp eq i32 %60, 0
  br i1 %61, label %62, label %130

62:                                               ; preds = %47
  %63 = load ptr, ptr %5, align 8
  %64 = getelementptr inbounds %struct._spl_dual_it_object, ptr %63, i32 0, i32 3
  %65 = getelementptr inbounds %struct.anon.13, ptr %64, i32 0, i32 1
  %66 = load ptr, ptr %65, align 8
  %67 = getelementptr inbounds %struct._zend_object_iterator, ptr %66, i32 0, i32 2
  %68 = load ptr, ptr %67, align 8
  %69 = getelementptr inbounds %struct._zend_object_iterator_funcs, ptr %68, i32 0, i32 2
  %70 = load ptr, ptr %69, align 8
  %71 = load ptr, ptr %5, align 8
  %72 = getelementptr inbounds %struct._spl_dual_it_object, ptr %71, i32 0, i32 3
  %73 = getelementptr inbounds %struct.anon.13, ptr %72, i32 0, i32 1
  %74 = load ptr, ptr %73, align 8
  %75 = call ptr %70(ptr noundef %74)
  store ptr %75, ptr %6, align 8
  br label %76

76:                                               ; preds = %62
  %77 = load ptr, ptr %5, align 8
  %78 = getelementptr inbounds %struct._spl_dual_it_object, ptr %77, i32 0, i32 0
  %79 = getelementptr inbounds %struct.anon.8, ptr %78, i32 0, i32 0
  store ptr %79, ptr %7, align 8
  %80 = load ptr, ptr %6, align 8
  store ptr %80, ptr %8, align 8
  %81 = load ptr, ptr %8, align 8
  %82 = getelementptr inbounds %struct._zval_struct, ptr %81, i32 0, i32 0
  %83 = load ptr, ptr %82, align 8
  store ptr %83, ptr %9, align 8
  %84 = load ptr, ptr %8, align 8
  %85 = getelementptr inbounds %struct._zval_struct, ptr %84, i32 0, i32 1
  %86 = load i32, ptr %85, align 8
  store i32 %86, ptr %10, align 4
  br label %87

87:                                               ; preds = %76
  %88 = load ptr, ptr %9, align 8
  %89 = load ptr, ptr %7, align 8
  %90 = getelementptr inbounds %struct._zval_struct, ptr %89, i32 0, i32 0
  store ptr %88, ptr %90, align 8
  %91 = load i32, ptr %10, align 4
  %92 = load ptr, ptr %7, align 8
  %93 = getelementptr inbounds %struct._zval_struct, ptr %92, i32 0, i32 1
  store i32 %91, ptr %93, align 8
  br label %94

94:                                               ; preds = %87
  %95 = load i32, ptr %10, align 4
  %96 = and i32 %95, 65280
  %97 = icmp ne i32 %96, 0
  br i1 %97, label %98, label %104

98:                                               ; preds = %94
  %99 = load ptr, ptr %9, align 8
  %100 = getelementptr inbounds %struct._zend_refcounted, ptr %99, i32 0, i32 0
  store ptr %100, ptr %2, align 8
  %101 = load ptr, ptr %2, align 8
  %102 = load i32, ptr %101, align 4
  %103 = add i32 %102, 1
  store i32 %103, ptr %101, align 4
  br label %104

104:                                              ; preds = %98, %94
  br label %105

105:                                              ; preds = %104
  %106 = load ptr, ptr %6, align 8
  %107 = getelementptr inbounds %struct._zval_struct, ptr %106, i32 0, i32 0
  %108 = load ptr, ptr %107, align 8
  %109 = getelementptr inbounds %struct._zend_object, ptr %108, i32 0, i32 2
  %110 = load ptr, ptr %109, align 8
  %111 = load ptr, ptr %5, align 8
  %112 = getelementptr inbounds %struct._spl_dual_it_object, ptr %111, i32 0, i32 0
  %113 = getelementptr inbounds %struct.anon.8, ptr %112, i32 0, i32 1
  store ptr %110, ptr %113, align 8
  %114 = load ptr, ptr %5, align 8
  %115 = getelementptr inbounds %struct._spl_dual_it_object, ptr %114, i32 0, i32 0
  %116 = getelementptr inbounds %struct.anon.8, ptr %115, i32 0, i32 1
  %117 = load ptr, ptr %116, align 8
  %118 = getelementptr inbounds %struct._zend_class_entry, ptr %117, i32 0, i32 33
  %119 = load ptr, ptr %118, align 8
  %120 = load ptr, ptr %5, align 8
  %121 = getelementptr inbounds %struct._spl_dual_it_object, ptr %120, i32 0, i32 0
  %122 = getelementptr inbounds %struct.anon.8, ptr %121, i32 0, i32 1
  %123 = load ptr, ptr %122, align 8
  %124 = load ptr, ptr %6, align 8
  %125 = call ptr %119(ptr noundef %123, ptr noundef %124, i32 noundef 0)
  %126 = load ptr, ptr %5, align 8
  %127 = getelementptr inbounds %struct._spl_dual_it_object, ptr %126, i32 0, i32 0
  %128 = getelementptr inbounds %struct.anon.8, ptr %127, i32 0, i32 3
  store ptr %125, ptr %128, align 8
  %129 = load ptr, ptr %5, align 8
  call void @spl_dual_it_rewind(ptr noundef %129)
  store i32 0, ptr %4, align 4
  br label %131

130:                                              ; preds = %47
  store i32 -1, ptr %4, align 4
  br label %131

131:                                              ; preds = %130, %105
  %132 = load i32, ptr %4, align 4
  ret i32 %132
}