; Function Attrs: nounwind uwtable
define hidden noundef i32 @spl_append_it_next_iterator(ptr noundef %0) local_unnamed_addr #0 {
  tail call fastcc void @spl_dual_it_free(ptr noundef %0)
  %2 = getelementptr inbounds i8, ptr %0, i64 8
  %3 = load i8, ptr %2, align 8
  %4 = icmp eq i8 %3, 0
  br i1 %4, label %10, label %5

5:                                                ; preds = %1
  tail call void @zval_ptr_dtor(ptr noundef nonnull %0) #10
  store i32 0, ptr %2, align 8
  %6 = getelementptr inbounds i8, ptr %0, i64 16
  store ptr null, ptr %6, align 8
  %7 = getelementptr inbounds i8, ptr %0, i64 32
  %8 = load ptr, ptr %7, align 8
  %.not = icmp eq ptr %8, null
  br i1 %.not, label %10, label %9

9:                                                ; preds = %5
  tail call void @zend_iterator_dtor(ptr noundef nonnull %8) #10
  store ptr null, ptr %7, align 8
  br label %10

10:                                               ; preds = %5, %9, %1
  %11 = getelementptr inbounds i8, ptr %0, i64 104
  %12 = load ptr, ptr %11, align 8
  %13 = getelementptr inbounds i8, ptr %12, i64 72
  %14 = load ptr, ptr %13, align 8
  %15 = getelementptr inbounds i8, ptr %14, i64 8
  %16 = load ptr, ptr %15, align 8
  %17 = tail call i32 %16(ptr noundef %12) #10
  %18 = icmp eq i32 %17, 0
  br i1 %18, label %19, label %spl_dual_it_rewind.exit

19:                                               ; preds = %10
  %20 = load ptr, ptr %11, align 8
  %21 = getelementptr inbounds i8, ptr %20, i64 72
  %22 = load ptr, ptr %21, align 8
  %23 = getelementptr inbounds i8, ptr %22, i64 16
  %24 = load ptr, ptr %23, align 8
  %25 = tail call ptr %24(ptr noundef %20) #10
  %26 = load ptr, ptr %25, align 8
  %27 = getelementptr inbounds i8, ptr %25, i64 8
  %28 = load i32, ptr %27, align 8
  store ptr %26, ptr %0, align 8
  store i32 %28, ptr %2, align 8
  %29 = and i32 %28, 65280
  %.not32 = icmp eq i32 %29, 0
  br i1 %.not32, label %33, label %30

30:                                               ; preds = %19
  %31 = load i32, ptr %26, align 4
  %32 = add i32 %31, 1
  store i32 %32, ptr %26, align 4
  br label %33

33:                                               ; preds = %19, %30
  %34 = load ptr, ptr %25, align 8
  %35 = getelementptr inbounds i8, ptr %34, i64 16
  %36 = load ptr, ptr %35, align 8
  %37 = getelementptr inbounds i8, ptr %0, i64 16
  store ptr %36, ptr %37, align 8
  %38 = getelementptr inbounds i8, ptr %36, i64 392
  %39 = load ptr, ptr %38, align 8
  %40 = tail call ptr %39(ptr noundef %36, ptr noundef nonnull %25, i32 noundef 0) #10
  %41 = getelementptr inbounds i8, ptr %0, i64 32
  store ptr %40, ptr %41, align 8
  tail call fastcc void @spl_dual_it_free(ptr noundef nonnull %0)
  %42 = getelementptr inbounds i8, ptr %0, i64 72
  store i64 0, ptr %42, align 8
  %43 = load ptr, ptr %41, align 8
  %.not.i = icmp eq ptr %43, null
  br i1 %.not.i, label %spl_dual_it_rewind.exit, label %44

44:                                               ; preds = %33
  %45 = getelementptr inbounds i8, ptr %43, i64 72
  %46 = load ptr, ptr %45, align 8
  %47 = getelementptr inbounds i8, ptr %46, i64 40
  %48 = load ptr, ptr %47, align 8
  %.not7.i = icmp eq ptr %48, null
  br i1 %.not7.i, label %spl_dual_it_rewind.exit, label %49

49:                                               ; preds = %44
  tail call void %48(ptr noundef nonnull %43) #10
  br label %spl_dual_it_rewind.exit

spl_dual_it_rewind.exit:                          ; preds = %49, %44, %33, %10
  %.0 = phi i32 [ -1, %10 ], [ 0, %33 ], [ 0, %44 ], [ 0, %49 ]
  ret i32 %.0
}